
a.out:     file format elf32-i386


Disassembly of section .init:

08048290 <_init>:
 8048290:	53                   	push   %ebx
 8048291:	83 ec 08             	sub    $0x8,%esp
 8048294:	e8 97 00 00 00       	call   8048330 <__x86.get_pc_thunk.bx>
 8048299:	81 c3 33 14 00 00    	add    $0x1433,%ebx
 804829f:	8b 83 fc ff ff ff    	mov    -0x4(%ebx),%eax
 80482a5:	85 c0                	test   %eax,%eax
 80482a7:	74 05                	je     80482ae <_init+0x1e>
 80482a9:	e8 22 00 00 00       	call   80482d0 <__gmon_start__@plt>
 80482ae:	83 c4 08             	add    $0x8,%esp
 80482b1:	5b                   	pop    %ebx
 80482b2:	c3                   	ret    

Disassembly of section .plt:

080482c0 <__gmon_start__@plt-0x10>:
 80482c0:	ff 35 d0 96 04 08    	pushl  0x80496d0
 80482c6:	ff 25 d4 96 04 08    	jmp    *0x80496d4
 80482cc:	00 00                	add    %al,(%eax)
	...

080482d0 <__gmon_start__@plt>:
 80482d0:	ff 25 d8 96 04 08    	jmp    *0x80496d8
 80482d6:	68 00 00 00 00       	push   $0x0
 80482db:	e9 e0 ff ff ff       	jmp    80482c0 <_init+0x30>

080482e0 <__libc_start_main@plt>:
 80482e0:	ff 25 dc 96 04 08    	jmp    *0x80496dc
 80482e6:	68 08 00 00 00       	push   $0x8
 80482eb:	e9 d0 ff ff ff       	jmp    80482c0 <_init+0x30>

080482f0 <atoi@plt>:
 80482f0:	ff 25 e0 96 04 08    	jmp    *0x80496e0
 80482f6:	68 10 00 00 00       	push   $0x10
 80482fb:	e9 c0 ff ff ff       	jmp    80482c0 <_init+0x30>

Disassembly of section .text:

08048300 <_start>:
 8048300:	31 ed                	xor    %ebp,%ebp
 8048302:	5e                   	pop    %esi
 8048303:	89 e1                	mov    %esp,%ecx
 8048305:	83 e4 f0             	and    $0xfffffff0,%esp
 8048308:	50                   	push   %eax
 8048309:	54                   	push   %esp
 804830a:	52                   	push   %edx
 804830b:	68 b0 84 04 08       	push   $0x80484b0
 8048310:	68 40 84 04 08       	push   $0x8048440
 8048315:	51                   	push   %ecx
 8048316:	56                   	push   %esi
 8048317:	68 0d 84 04 08       	push   $0x804840d
 804831c:	e8 bf ff ff ff       	call   80482e0 <__libc_start_main@plt>
 8048321:	f4                   	hlt    
 8048322:	66 90                	xchg   %ax,%ax
 8048324:	66 90                	xchg   %ax,%ax
 8048326:	66 90                	xchg   %ax,%ax
 8048328:	66 90                	xchg   %ax,%ax
 804832a:	66 90                	xchg   %ax,%ax
 804832c:	66 90                	xchg   %ax,%ax
 804832e:	66 90                	xchg   %ax,%ax

08048330 <__x86.get_pc_thunk.bx>:
 8048330:	8b 1c 24             	mov    (%esp),%ebx
 8048333:	c3                   	ret    
 8048334:	66 90                	xchg   %ax,%ax
 8048336:	66 90                	xchg   %ax,%ax
 8048338:	66 90                	xchg   %ax,%ax
 804833a:	66 90                	xchg   %ax,%ax
 804833c:	66 90                	xchg   %ax,%ax
 804833e:	66 90                	xchg   %ax,%ax

08048340 <deregister_tm_clones>:
 8048340:	b8 ef 96 04 08       	mov    $0x80496ef,%eax
 8048345:	2d ec 96 04 08       	sub    $0x80496ec,%eax
 804834a:	83 f8 06             	cmp    $0x6,%eax
 804834d:	77 01                	ja     8048350 <deregister_tm_clones+0x10>
 804834f:	c3                   	ret    
 8048350:	b8 00 00 00 00       	mov    $0x0,%eax
 8048355:	85 c0                	test   %eax,%eax
 8048357:	74 f6                	je     804834f <deregister_tm_clones+0xf>
 8048359:	55                   	push   %ebp
 804835a:	89 e5                	mov    %esp,%ebp
 804835c:	83 ec 18             	sub    $0x18,%esp
 804835f:	c7 04 24 ec 96 04 08 	movl   $0x80496ec,(%esp)
 8048366:	ff d0                	call   *%eax
 8048368:	c9                   	leave  
 8048369:	c3                   	ret    
 804836a:	8d b6 00 00 00 00    	lea    0x0(%esi),%esi

08048370 <register_tm_clones>:
 8048370:	b8 ec 96 04 08       	mov    $0x80496ec,%eax
 8048375:	2d ec 96 04 08       	sub    $0x80496ec,%eax
 804837a:	c1 f8 02             	sar    $0x2,%eax
 804837d:	89 c2                	mov    %eax,%edx
 804837f:	c1 ea 1f             	shr    $0x1f,%edx
 8048382:	01 d0                	add    %edx,%eax
 8048384:	d1 f8                	sar    %eax
 8048386:	75 01                	jne    8048389 <register_tm_clones+0x19>
 8048388:	c3                   	ret    
 8048389:	ba 00 00 00 00       	mov    $0x0,%edx
 804838e:	85 d2                	test   %edx,%edx
 8048390:	74 f6                	je     8048388 <register_tm_clones+0x18>
 8048392:	55                   	push   %ebp
 8048393:	89 e5                	mov    %esp,%ebp
 8048395:	83 ec 18             	sub    $0x18,%esp
 8048398:	89 44 24 04          	mov    %eax,0x4(%esp)
 804839c:	c7 04 24 ec 96 04 08 	movl   $0x80496ec,(%esp)
 80483a3:	ff d2                	call   *%edx
 80483a5:	c9                   	leave  
 80483a6:	c3                   	ret    
 80483a7:	89 f6                	mov    %esi,%esi
 80483a9:	8d bc 27 00 00 00 00 	lea    0x0(%edi,%eiz,1),%edi

080483b0 <__do_global_dtors_aux>:
 80483b0:	80 3d ec 96 04 08 00 	cmpb   $0x0,0x80496ec
 80483b7:	75 13                	jne    80483cc <__do_global_dtors_aux+0x1c>
 80483b9:	55                   	push   %ebp
 80483ba:	89 e5                	mov    %esp,%ebp
 80483bc:	83 ec 08             	sub    $0x8,%esp
 80483bf:	e8 7c ff ff ff       	call   8048340 <deregister_tm_clones>
 80483c4:	c6 05 ec 96 04 08 01 	movb   $0x1,0x80496ec
 80483cb:	c9                   	leave  
 80483cc:	f3 c3                	repz ret 
 80483ce:	66 90                	xchg   %ax,%ax

080483d0 <frame_dummy>:
 80483d0:	a1 dc 95 04 08       	mov    0x80495dc,%eax
 80483d5:	85 c0                	test   %eax,%eax
 80483d7:	74 1f                	je     80483f8 <frame_dummy+0x28>
 80483d9:	b8 00 00 00 00       	mov    $0x0,%eax
 80483de:	85 c0                	test   %eax,%eax
 80483e0:	74 16                	je     80483f8 <frame_dummy+0x28>
 80483e2:	55                   	push   %ebp
 80483e3:	89 e5                	mov    %esp,%ebp
 80483e5:	83 ec 18             	sub    $0x18,%esp
 80483e8:	c7 04 24 dc 95 04 08 	movl   $0x80495dc,(%esp)
 80483ef:	ff d0                	call   *%eax
 80483f1:	c9                   	leave  
 80483f2:	e9 79 ff ff ff       	jmp    8048370 <register_tm_clones>
 80483f7:	90                   	nop
 80483f8:	e9 73 ff ff ff       	jmp    8048370 <register_tm_clones>

080483fd <sub>:
 80483fd:	55                   	push   %ebp
 80483fe:	89 e5                	mov    %esp,%ebp
 8048400:	8b 45 08             	mov    0x8(%ebp),%eax
 8048403:	8d 14 00             	lea    (%eax,%eax,1),%edx
 8048406:	8b 45 0c             	mov    0xc(%ebp),%eax
 8048409:	01 d0                	add    %edx,%eax
 804840b:	5d                   	pop    %ebp
 804840c:	c3                   	ret    

0804840d <main>:
 804840d:	55                   	push   %ebp
 804840e:	89 e5                	mov    %esp,%ebp
 8048410:	83 e4 f0             	and    $0xfffffff0,%esp
 8048413:	83 ec 20             	sub    $0x20,%esp
 8048416:	8b 45 0c             	mov    0xc(%ebp),%eax
 8048419:	83 c0 04             	add    $0x4,%eax
 804841c:	8b 00                	mov    (%eax),%eax
 804841e:	89 04 24             	mov    %eax,(%esp)
 8048421:	e8 ca fe ff ff       	call   80482f0 <atoi@plt>
 8048426:	89 44 24 1c          	mov    %eax,0x1c(%esp)
 804842a:	8b 44 24 1c          	mov    0x1c(%esp),%eax
 804842e:	89 44 24 04          	mov    %eax,0x4(%esp)
 8048432:	8b 45 08             	mov    0x8(%ebp),%eax
 8048435:	89 04 24             	mov    %eax,(%esp)
 8048438:	e8 c0 ff ff ff       	call   80483fd <sub>
 804843d:	c9                   	leave  
 804843e:	c3                   	ret    
 804843f:	90                   	nop

08048440 <__libc_csu_init>:
 8048440:	55                   	push   %ebp
 8048441:	57                   	push   %edi
 8048442:	31 ff                	xor    %edi,%edi
 8048444:	56                   	push   %esi
 8048445:	53                   	push   %ebx
 8048446:	e8 e5 fe ff ff       	call   8048330 <__x86.get_pc_thunk.bx>
 804844b:	81 c3 81 12 00 00    	add    $0x1281,%ebx
 8048451:	83 ec 1c             	sub    $0x1c,%esp
 8048454:	8b 6c 24 30          	mov    0x30(%esp),%ebp
 8048458:	8d b3 0c ff ff ff    	lea    -0xf4(%ebx),%esi
 804845e:	e8 2d fe ff ff       	call   8048290 <_init>
 8048463:	8d 83 08 ff ff ff    	lea    -0xf8(%ebx),%eax
 8048469:	29 c6                	sub    %eax,%esi
 804846b:	c1 fe 02             	sar    $0x2,%esi
 804846e:	85 f6                	test   %esi,%esi
 8048470:	74 27                	je     8048499 <__libc_csu_init+0x59>
 8048472:	8d b6 00 00 00 00    	lea    0x0(%esi),%esi
 8048478:	8b 44 24 38          	mov    0x38(%esp),%eax
 804847c:	89 2c 24             	mov    %ebp,(%esp)
 804847f:	89 44 24 08          	mov    %eax,0x8(%esp)
 8048483:	8b 44 24 34          	mov    0x34(%esp),%eax
 8048487:	89 44 24 04          	mov    %eax,0x4(%esp)
 804848b:	ff 94 bb 08 ff ff ff 	call   *-0xf8(%ebx,%edi,4)
 8048492:	83 c7 01             	add    $0x1,%edi
 8048495:	39 f7                	cmp    %esi,%edi
 8048497:	75 df                	jne    8048478 <__libc_csu_init+0x38>
 8048499:	83 c4 1c             	add    $0x1c,%esp
 804849c:	5b                   	pop    %ebx
 804849d:	5e                   	pop    %esi
 804849e:	5f                   	pop    %edi
 804849f:	5d                   	pop    %ebp
 80484a0:	c3                   	ret    
 80484a1:	eb 0d                	jmp    80484b0 <__libc_csu_fini>
 80484a3:	90                   	nop
 80484a4:	90                   	nop
 80484a5:	90                   	nop
 80484a6:	90                   	nop
 80484a7:	90                   	nop
 80484a8:	90                   	nop
 80484a9:	90                   	nop
 80484aa:	90                   	nop
 80484ab:	90                   	nop
 80484ac:	90                   	nop
 80484ad:	90                   	nop
 80484ae:	90                   	nop
 80484af:	90                   	nop

080484b0 <__libc_csu_fini>:
 80484b0:	f3 c3                	repz ret 

Disassembly of section .fini:

080484b4 <_fini>:
 80484b4:	53                   	push   %ebx
 80484b5:	83 ec 08             	sub    $0x8,%esp
 80484b8:	e8 73 fe ff ff       	call   8048330 <__x86.get_pc_thunk.bx>
 80484bd:	81 c3 0f 12 00 00    	add    $0x120f,%ebx
 80484c3:	83 c4 08             	add    $0x8,%esp
 80484c6:	5b                   	pop    %ebx
 80484c7:	c3                   	ret    
